; Function Attrs: nounwind uwtable
define internal range(i32 0, 2) i32 @encode_case_19_dec(ptr noundef %0, i64 noundef %1) #0 {
  %3 = alloca i64, align 8
  call void @llvm.lifetime.start.p0(i64 8, ptr nonnull %3) #4
  store i64 0, ptr %3, align 8, !tbaa !13
  %4 = call i32 @ossl_quic_wire_decode_frame_path_response(ptr noundef %0, ptr noundef nonnull %3) #4
  %.lobit = lshr i64 %1, 63
  %5 = trunc nuw nsw i64 %.lobit to i32
  %6 = call i32 @test_int_eq(ptr noundef nonnull @.str.5, i32 noundef 936, ptr noundef nonnull @.str.129, ptr noundef nonnull @.str.23, i32 noundef %4, i32 noundef %5) #4
  %.not = icmp eq i32 %6, 0
  br i1 %.not, label %12, label %7

7:                                                ; preds = %2
  %8 = icmp sgt i64 %1, -1
  br i1 %8, label %12, label %9

9:                                                ; preds = %7
  %10 = load i64, ptr %3, align 8, !tbaa !13
  %11 = call i32 @test_uint64_t_eq(ptr noundef nonnull @.str.5, i32 noundef 942, ptr noundef nonnull @.str.126, ptr noundef nonnull @.str.130, i64 noundef %10, i64 noundef 6866601848073295924) #4
  %.not3 = icmp ne i32 %11, 0
  %. = zext i1 %.not3 to i32
  br label %12

12:                                               ; preds = %9, %7, %2
  %.0 = phi i32 [ 0, %2 ], [ 1, %7 ], [ %., %9 ]
  call void @llvm.lifetime.end.p0(i64 8, ptr nonnull %3) #4
  ret i32 %.0
}